; Function Attrs: nounwind sspstrong uwtable
define dso_local i64 @rb_econv_str_convert(ptr noundef %0, i64 noundef %1, i32 noundef %2) local_unnamed_addr #0 {
  %4 = alloca i64, align 8
  %5 = alloca ptr, align 8
  %6 = inttoptr i64 %1 to ptr
  %7 = getelementptr inbounds nuw i8, ptr %6, i64 16
  %8 = load i64, ptr %7, align 8, !tbaa !114
  call void @llvm.lifetime.start.p0(i64 8, ptr nonnull %4)
  %9 = tail call i64 @rb_str_new_frozen(i64 noundef %1) #22
  store i64 %9, ptr %4, align 8, !tbaa !22
  %10 = inttoptr i64 %9 to ptr
  %11 = load i64, ptr %10, align 8, !tbaa !33, !noalias !131
  %12 = and i64 %11, 8192
  %.not.i.i.i = icmp eq i64 %12, 0
  %13 = getelementptr inbounds nuw i8, ptr %10, i64 24
  br i1 %.not.i.i.i, label %rb_econv_substr_append.exit, label %14

14:                                               ; preds = %3
  %.sroa.2.0.copyload.i.i = load ptr, ptr %13, align 8
  br label %rb_econv_substr_append.exit

rb_econv_substr_append.exit:                      ; preds = %3, %14
  %.sroa.2.0.i.i = phi ptr [ %.sroa.2.0.copyload.i.i, %14 ], [ %13, %3 ]
  %15 = tail call i64 @rb_econv_append(ptr noundef %0, ptr noundef %.sroa.2.0.i.i, i64 noundef %8, i64 noundef 4, i32 noundef %2)
  call void @llvm.lifetime.start.p0(i64 8, ptr nonnull %5) #22
  store ptr %4, ptr %5, align 8, !tbaa !123
  call void asm sideeffect "", "*m,~{dirflag},~{fpsr},~{flags}"(ptr nonnull elementtype(ptr) %5) #22, !srcloc !124
  %16 = load ptr, ptr %5, align 8, !tbaa !123
  call void @llvm.lifetime.end.p0(i64 8, ptr nonnull %5) #22
  %17 = load volatile i64, ptr %16, align 8, !tbaa !22
  call void @llvm.lifetime.end.p0(i64 8, ptr nonnull %4)
  ret i64 %15
}